target datalayout = "e-m:e-p270:32:32-p271:32:32-p272:64:64-i64:64-i128:128-f80:128-n8:16:32:64-S128"
target triple = "x86_64-unknown-linux-gnu"

%"class.icu_75::Locale" = type <{ %"class.icu_75::UObject", [12 x i8], [6 x i8], [4 x i8], [2 x i8], i32, [4 x i8], ptr, [157 x i8], [3 x i8], ptr, i8, [7 x i8] }>
%"class.icu_75::UObject" = type { ptr }
%"class.icu_75::LocaleMatcher" = type { ptr, ptr, i32, i32, i32, i32, ptr, ptr, i32, ptr, ptr, ptr, i32, ptr, ptr }
%"struct.icu_75::LSR" = type <{ ptr, ptr, ptr, ptr, i32, i32, i32, [4 x i8] }>

@.str = private unnamed_addr constant [4 x i8] c"und\00", align 1
@.str.1 = private unnamed_addr constant [1 x i8] zeroinitializer, align 1

; Function Attrs: mustprogress uwtable
define linkonce_odr void @_ZN6icu_753LSRC2EPKcS2_S2_i(ptr noundef nonnull align 8 dereferenceable(48) %this, ptr noundef %lang, ptr noundef %scr, ptr noundef %r, i32 noundef %f) unnamed_addr #1 comdat align 2 {
entry:
  %this.addr = alloca ptr, align 8
  %lang.addr = alloca ptr, align 8
  %scr.addr = alloca ptr, align 8
  %r.addr = alloca ptr, align 8
  %f.addr = alloca i32, align 4
  store ptr %this, ptr %this.addr, align 8
  store ptr %lang, ptr %lang.addr, align 8
  store ptr %scr, ptr %scr.addr, align 8
  store ptr %r, ptr %r.addr, align 8
  store i32 %f, ptr %f.addr, align 4
  %this1 = load ptr, ptr %this.addr, align 8
  %language = getelementptr inbounds %"struct.icu_75::LSR", ptr %this1, i32 0, i32 0
  %0 = load ptr, ptr %lang.addr, align 8
  store ptr %0, ptr %language, align 8
  %script = getelementptr inbounds %"struct.icu_75::LSR", ptr %this1, i32 0, i32 1
  %1 = load ptr, ptr %scr.addr, align 8
  store ptr %1, ptr %script, align 8
  %region = getelementptr inbounds %"struct.icu_75::LSR", ptr %this1, i32 0, i32 2
  %2 = load ptr, ptr %r.addr, align 8
  store ptr %2, ptr %region, align 8
  %owned = getelementptr inbounds %"struct.icu_75::LSR", ptr %this1, i32 0, i32 3
  store ptr null, ptr %owned, align 8
  %regionIndex = getelementptr inbounds %"struct.icu_75::LSR", ptr %this1, i32 0, i32 4
  %region2 = getelementptr inbounds %"struct.icu_75::LSR", ptr %this1, i32 0, i32 2
  %3 = load ptr, ptr %region2, align 8
  %call = call noundef i32 @_ZN6icu_753LSR14indexForRegionEPKc(ptr noundef %3)
  store i32 %call, ptr %regionIndex, align 8
  %flags = getelementptr inbounds %"struct.icu_75::LSR", ptr %this1, i32 0, i32 5
  %4 = load i32, ptr %f.addr, align 4
  store i32 %4, ptr %flags, align 4
  %hashCode = getelementptr inbounds %"struct.icu_75::LSR", ptr %this1, i32 0, i32 6
  store i32 0, ptr %hashCode, align 8
  ret void
}

; Function Attrs: mustprogress nounwind uwtable
define linkonce_odr noundef ptr @_ZNK6icu_756Locale7getNameEv(ptr noundef nonnull align 8 dereferenceable(217) %this) #0 comdat align 2 {
entry:
  %this.addr = alloca ptr, align 8
  store ptr %this, ptr %this.addr, align 8
  %this1 = load ptr, ptr %this.addr, align 8
  %fullName = getelementptr inbounds %"class.icu_75::Locale", ptr %this1, i32 0, i32 7
  %0 = load ptr, ptr %fullName, align 8
  ret ptr %0
}

; Function Attrs: mustprogress nounwind uwtable
define linkonce_odr noundef signext i8 @_ZNK6icu_756Locale7isBogusEv(ptr noundef nonnull align 8 dereferenceable(217) %this) #0 comdat align 2 {
entry:
  %this.addr = alloca ptr, align 8
  store ptr %this, ptr %this.addr, align 8
  %this1 = load ptr, ptr %this.addr, align 8
  %fIsBogus = getelementptr inbounds %"class.icu_75::Locale", ptr %this1, i32 0, i32 11
  %0 = load i8, ptr %fIsBogus, align 8
  ret i8 %0
}

; Function Attrs: mustprogress nounwind uwtable
define internal noundef signext i8 @_ZL9U_SUCCESS10UErrorCode(i32 noundef %code) #0 {
entry:
  %code.addr = alloca i32, align 4
  store i32 %code, ptr %code.addr, align 4
  %0 = load i32, ptr %code.addr, align 4
  %cmp = icmp sle i32 %0, 0
  %conv = zext i1 %cmp to i8
  ret i8 %conv
}

; Function Attrs: mustprogress uwtable
define internal void @_ZN6icu_7512_GLOBAL__N_118getMaximalLsrOrUndERKNS_13LikelySubtagsERKNS_6LocaleER10UErrorCode(ptr noalias sret(%"struct.icu_75::LSR") align 8 %agg.result, ptr noundef nonnull align 8 dereferenceable(352) %likelySubtags, ptr noundef nonnull align 8 dereferenceable(217) %locale, ptr noundef nonnull align 4 dereferenceable(4) %errorCode) #1 {
entry:
  %result.ptr = alloca ptr, align 8
  %likelySubtags.addr = alloca ptr, align 8
  %locale.addr = alloca ptr, align 8
  %errorCode.addr = alloca ptr, align 8
  store ptr %agg.result, ptr %result.ptr, align 8
  store ptr %likelySubtags, ptr %likelySubtags.addr, align 8
  store ptr %locale, ptr %locale.addr, align 8
  store ptr %errorCode, ptr %errorCode.addr, align 8
  %0 = load ptr, ptr %errorCode.addr, align 8
  %1 = load i32, ptr %0, align 4
  %call = call noundef signext i8 @_ZL9U_FAILURE10UErrorCode(i32 noundef %1)
  %tobool = icmp ne i8 %call, 0
  br i1 %tobool, label %if.then, label %lor.lhs.false

lor.lhs.false:                                    ; preds = %entry
  %2 = load ptr, ptr %locale.addr, align 8
  %call1 = call noundef signext i8 @_ZNK6icu_756Locale7isBogusEv(ptr noundef nonnull align 8 dereferenceable(217) %2)
  %tobool2 = icmp ne i8 %call1, 0
  br i1 %tobool2, label %if.then, label %lor.lhs.false3

lor.lhs.false3:                                   ; preds = %lor.lhs.false
  %3 = load ptr, ptr %locale.addr, align 8
  %call4 = call noundef ptr @_ZNK6icu_756Locale7getNameEv(ptr noundef nonnull align 8 dereferenceable(217) %3)
  %4 = load i8, ptr %call4, align 1
  %conv = sext i8 %4 to i32
  %cmp = icmp eq i32 %conv, 0
  br i1 %cmp, label %if.then, label %if.else

if.then:                                          ; preds = %lor.lhs.false3, %lor.lhs.false, %entry
  call void @_ZN6icu_753LSRC2EPKcS2_S2_i(ptr noundef nonnull align 8 dereferenceable(48) %agg.result, ptr noundef @.str, ptr noundef @.str.1, ptr noundef @.str.1, i32 noundef 7)
  br label %return

if.else:                                          ; preds = %lor.lhs.false3
  %5 = load ptr, ptr %likelySubtags.addr, align 8
  %6 = load ptr, ptr %locale.addr, align 8
  %7 = load ptr, ptr %errorCode.addr, align 8
  call void @_ZNK6icu_7513LikelySubtags20makeMaximizedLsrFromERKNS_6LocaleEbR10UErrorCode(ptr sret(%"struct.icu_75::LSR") align 8 %agg.result, ptr noundef nonnull align 8 dereferenceable(352) %5, ptr noundef nonnull align 8 dereferenceable(217) %6, i1 noundef zeroext false, ptr noundef nonnull align 4 dereferenceable(4) %7)
  br label %return

return:                                           ; preds = %if.else, %if.then
  ret void
}

; Function Attrs: mustprogress nounwind uwtable
define internal noundef signext i8 @_ZL9U_FAILURE10UErrorCode(i32 noundef %code) #0 {
entry:
  %code.addr = alloca i32, align 4
  store i32 %code, ptr %code.addr, align 4
  %0 = load i32, ptr %code.addr, align 4
  %cmp = icmp sgt i32 %0, 0
  %conv = zext i1 %cmp to i8
  ret i8 %conv
}

; Function Attrs: mustprogress uwtable
define noundef ptr @_ZNK6icu_7513LocaleMatcher12getBestMatchERKNS_6LocaleER10UErrorCode(ptr noundef nonnull align 8 dereferenceable(104) %this, ptr noundef nonnull align 8 dereferenceable(217) %desiredLocale, ptr noundef nonnull align 4 dereferenceable(4) %errorCode) #1 align 2 personality ptr @__gxx_personality_v0 {
entry:
  %retval = alloca ptr, align 8
  %this.addr = alloca ptr, align 8
  %desiredLocale.addr = alloca ptr, align 8
  %errorCode.addr = alloca ptr, align 8
  %suppIndex = alloca i32, align 4
  %agg.tmp = alloca %"struct.icu_75::LSR", align 8
  %exn.slot = alloca ptr, align 8
  %ehselector.slot = alloca i32, align 4
  store ptr %this, ptr %this.addr, align 8
  store ptr %desiredLocale, ptr %desiredLocale.addr, align 8
  store ptr %errorCode, ptr %errorCode.addr, align 8
  %this1 = load ptr, ptr %this.addr, align 8
  %0 = load ptr, ptr %errorCode.addr, align 8
  %1 = load i32, ptr %0, align 4
  %call = call noundef signext i8 @_ZL9U_FAILURE10UErrorCode(i32 noundef %1)
  %tobool = icmp ne i8 %call, 0
  br i1 %tobool, label %if.then, label %if.end

if.then:                                          ; preds = %entry
  store ptr null, ptr %retval, align 8
  br label %return

if.end:                                           ; preds = %entry
  %likelySubtags = getelementptr inbounds %"class.icu_75::LocaleMatcher", ptr %this1, i32 0, i32 0
  %2 = load ptr, ptr %likelySubtags, align 8
  %3 = load ptr, ptr %desiredLocale.addr, align 8
  %4 = load ptr, ptr %errorCode.addr, align 8
  call void @_ZN6icu_7512_GLOBAL__N_118getMaximalLsrOrUndERKNS_13LikelySubtagsERKNS_6LocaleER10UErrorCode(ptr sret(%"struct.icu_75::LSR") align 8 %agg.tmp, ptr noundef nonnull align 8 dereferenceable(352) %2, ptr noundef nonnull align 8 dereferenceable(217) %3, ptr noundef nonnull align 4 dereferenceable(4) %4)
  %5 = load ptr, ptr %errorCode.addr, align 8
  %call2 = invoke noundef i32 @_ZNK6icu_7513LocaleMatcher16getBestSuppIndexENS_3LSREPNS_17LocaleLsrIteratorER10UErrorCode(ptr noundef nonnull align 8 dereferenceable(104) %this1, ptr noundef %agg.tmp, ptr noundef null, ptr noundef nonnull align 4 dereferenceable(4) %5)
          to label %invoke.cont unwind label %lpad

invoke.cont:                                      ; preds = %if.end
  call void @_ZN6icu_753LSRD2Ev(ptr noundef nonnull align 8 dereferenceable(48) %agg.tmp) #11
  store i32 %call2, ptr %suppIndex, align 4
  %6 = load ptr, ptr %errorCode.addr, align 8
  %7 = load i32, ptr %6, align 4
  %call3 = call noundef signext i8 @_ZL9U_SUCCESS10UErrorCode(i32 noundef %7)
  %tobool4 = icmp ne i8 %call3, 0
  br i1 %tobool4, label %land.lhs.true, label %cond.false

land.lhs.true:                                    ; preds = %invoke.cont
  %8 = load i32, ptr %suppIndex, align 4
  %cmp = icmp sge i32 %8, 0
  br i1 %cmp, label %cond.true, label %cond.false

cond.true:                                        ; preds = %land.lhs.true
  %supportedLocales = getelementptr inbounds %"class.icu_75::LocaleMatcher", ptr %this1, i32 0, i32 6
  %9 = load ptr, ptr %supportedLocales, align 8
  %10 = load i32, ptr %suppIndex, align 4
  %idxprom = sext i32 %10 to i64
  %arrayidx = getelementptr inbounds ptr, ptr %9, i64 %idxprom
  %11 = load ptr, ptr %arrayidx, align 8
  br label %cond.end

cond.false:                                       ; preds = %land.lhs.true, %invoke.cont
  %defaultLocale = getelementptr inbounds %"class.icu_75::LocaleMatcher", ptr %this1, i32 0, i32 14
  %12 = load ptr, ptr %defaultLocale, align 8
  br label %cond.end

cond.end:                                         ; preds = %cond.false, %cond.true
  %cond = phi ptr [ %11, %cond.true ], [ %12, %cond.false ]
  store ptr %cond, ptr %retval, align 8
  br label %return

lpad:                                             ; preds = %if.end
  %13 = landingpad { ptr, i32 }
          cleanup
  %14 = extractvalue { ptr, i32 } %13, 0
  store ptr %14, ptr %exn.slot, align 8
  %15 = extractvalue { ptr, i32 } %13, 1
  store i32 %15, ptr %ehselector.slot, align 4
  call void @_ZN6icu_753LSRD2Ev(ptr noundef nonnull align 8 dereferenceable(48) %agg.tmp) #11
  br label %eh.resume

return:                                           ; preds = %cond.end, %if.then
  %16 = load ptr, ptr %retval, align 8
  ret ptr %16

eh.resume:                                        ; preds = %lpad
  %exn = load ptr, ptr %exn.slot, align 8
  %sel = load i32, ptr %ehselector.slot, align 4
  %lpad.val = insertvalue { ptr, i32 } poison, ptr %exn, 0
  %lpad.val5 = insertvalue { ptr, i32 } %lpad.val, i32 %sel, 1
  resume { ptr, i32 } %lpad.val5
}