; Function Attrs: mustprogress uwtable
define noundef ptr @_ZNK6icu_7513LocaleMatcher12getBestMatchERKNS_6LocaleER10UErrorCode(ptr nocapture noundef nonnull readonly align 8 dereferenceable(104) %this, ptr noundef nonnull align 8 dereferenceable(217) %desiredLocale, ptr noundef nonnull align 4 dereferenceable(4) %errorCode) local_unnamed_addr #2 align 2 personality ptr @__gxx_personality_v0 {
entry:
  %agg.tmp = alloca %"struct.icu_75::LSR", align 8
  %0 = load i32, ptr %errorCode, align 4
  %cmp.i = icmp slt i32 %0, 1
  br i1 %cmp.i, label %if.end, label %return

if.end:                                           ; preds = %entry
  %1 = load ptr, ptr %this, align 8
  tail call void @llvm.experimental.noalias.scope.decl(metadata !18)
  %fIsBogus.i.i = getelementptr inbounds i8, ptr %desiredLocale, i64 216
  %2 = load i8, ptr %fIsBogus.i.i, align 8, !noalias !18
  %tobool2.not.i = icmp eq i8 %2, 0
  br i1 %tobool2.not.i, label %lor.lhs.false3.i, label %if.then.i

lor.lhs.false3.i:                                 ; preds = %if.end
  %fullName.i.i = getelementptr inbounds i8, ptr %desiredLocale, i64 40
  %3 = load ptr, ptr %fullName.i.i, align 8, !noalias !18
  %4 = load i8, ptr %3, align 1, !noalias !18
  %cmp.i5 = icmp eq i8 %4, 0
  br i1 %cmp.i5, label %if.then.i, label %if.else.i

if.then.i:                                        ; preds = %lor.lhs.false3.i, %if.end
  store ptr @.str, ptr %agg.tmp, align 8, !alias.scope !18
  %script.i.i = getelementptr inbounds i8, ptr %agg.tmp, i64 8
  store ptr @.str.1, ptr %script.i.i, align 8, !alias.scope !18
  %region.i.i = getelementptr inbounds i8, ptr %agg.tmp, i64 16
  store ptr @.str.1, ptr %region.i.i, align 8, !alias.scope !18
  %owned.i.i = getelementptr inbounds i8, ptr %agg.tmp, i64 24
  store ptr null, ptr %owned.i.i, align 8, !alias.scope !18
  %regionIndex.i.i = getelementptr inbounds i8, ptr %agg.tmp, i64 32
  %call.i.i = tail call noundef i32 @_ZN6icu_753LSR14indexForRegionEPKc(ptr noundef nonnull @.str.1), !noalias !18
  store i32 %call.i.i, ptr %regionIndex.i.i, align 8, !alias.scope !18
  %flags.i.i = getelementptr inbounds i8, ptr %agg.tmp, i64 36
  store i32 7, ptr %flags.i.i, align 4, !alias.scope !18
  %hashCode.i.i = getelementptr inbounds i8, ptr %agg.tmp, i64 40
  store i32 0, ptr %hashCode.i.i, align 8, !alias.scope !18
  br label %_ZN6icu_7512_GLOBAL__N_118getMaximalLsrOrUndERKNS_13LikelySubtagsERKNS_6LocaleER10UErrorCode.exit

if.else.i:                                        ; preds = %lor.lhs.false3.i
  call void @_ZNK6icu_7513LikelySubtags20makeMaximizedLsrFromERKNS_6LocaleEbR10UErrorCode(ptr nonnull sret(%"struct.icu_75::LSR") align 8 %agg.tmp, ptr noundef nonnull align 8 dereferenceable(352) %1, ptr noundef nonnull align 8 dereferenceable(217) %desiredLocale, i1 noundef zeroext false, ptr noundef nonnull align 4 dereferenceable(4) %errorCode)
  br label %_ZN6icu_7512_GLOBAL__N_118getMaximalLsrOrUndERKNS_13LikelySubtagsERKNS_6LocaleER10UErrorCode.exit

_ZN6icu_7512_GLOBAL__N_118getMaximalLsrOrUndERKNS_13LikelySubtagsERKNS_6LocaleER10UErrorCode.exit: ; preds = %if.then.i, %if.else.i
  %call2 = invoke noundef i32 @_ZNK6icu_7513LocaleMatcher16getBestSuppIndexENS_3LSREPNS_17LocaleLsrIteratorER10UErrorCode(ptr noundef nonnull align 8 dereferenceable(104) %this, ptr noundef nonnull %agg.tmp, ptr noundef null, ptr noundef nonnull align 4 dereferenceable(4) %errorCode)
          to label %invoke.cont unwind label %lpad

invoke.cont:                                      ; preds = %_ZN6icu_7512_GLOBAL__N_118getMaximalLsrOrUndERKNS_13LikelySubtagsERKNS_6LocaleER10UErrorCode.exit
  %owned.i = getelementptr inbounds i8, ptr %agg.tmp, i64 24
  %5 = load ptr, ptr %owned.i, align 8
  %cmp.not.i = icmp eq ptr %5, null
  br i1 %cmp.not.i, label %_ZN6icu_753LSRD2Ev.exit, label %if.then.i6

if.then.i6:                                       ; preds = %invoke.cont
  invoke void @_ZN6icu_753LSR11deleteOwnedEv(ptr noundef nonnull align 8 dereferenceable(48) %agg.tmp)
          to label %_ZN6icu_753LSRD2Ev.exit unwind label %terminate.lpad.i

terminate.lpad.i:                                 ; preds = %if.then.i6
  %6 = landingpad { ptr, i32 }
          catch ptr null
  %7 = extractvalue { ptr, i32 } %6, 0
  call void @__clang_call_terminate(ptr %7) #16
  unreachable

_ZN6icu_753LSRD2Ev.exit:                          ; preds = %invoke.cont, %if.then.i6
  %8 = load i32, ptr %errorCode, align 4
  %cmp.i7 = icmp slt i32 %8, 1
  %cmp = icmp sgt i32 %call2, -1
  %or.cond = and i1 %cmp, %cmp.i7
  %supportedLocales = getelementptr inbounds i8, ptr %this, i64 32
  %9 = load ptr, ptr %supportedLocales, align 8
  %idxprom = zext nneg i32 %call2 to i64
  %arrayidx = getelementptr inbounds ptr, ptr %9, i64 %idxprom
  %defaultLocale = getelementptr inbounds i8, ptr %this, i64 96
  %cond.in = select i1 %or.cond, ptr %arrayidx, ptr %defaultLocale
  %cond = load ptr, ptr %cond.in, align 8
  br label %return

lpad:                                             ; preds = %_ZN6icu_7512_GLOBAL__N_118getMaximalLsrOrUndERKNS_13LikelySubtagsERKNS_6LocaleER10UErrorCode.exit
  %10 = landingpad { ptr, i32 }
          cleanup
  call void @_ZN6icu_753LSRD2Ev(ptr noundef nonnull align 8 dereferenceable(48) %agg.tmp) #15
  resume { ptr, i32 } %10

return:                                           ; preds = %entry, %_ZN6icu_753LSRD2Ev.exit
  %retval.0 = phi ptr [ %cond, %_ZN6icu_753LSRD2Ev.exit ], [ null, %entry ]
  ret ptr %retval.0
}